target datalayout = "e-m:e-p270:32:32-p271:32:32-p272:64:64-i64:64-i128:128-f80:128-n8:16:32:64-S128"
target triple = "x86_64-pc-linux-gnu"

%struct.nghttp2_hd_context = type { %struct.nghttp2_hd_ringbuf, ptr, i64, i64, i32, i8 }
%struct.nghttp2_hd_ringbuf = type { ptr, i64, i64, i64 }
%struct.nghttp2_hd_inflater = type { %struct.nghttp2_hd_context, %struct.nghttp2_hd_huff_decode_context, %struct.nghttp2_buf, %struct.nghttp2_buf, ptr, ptr, ptr, ptr, i64, i64, i64, i64, i64, i32, i32, i8, i8, i8 }
%struct.nghttp2_hd_huff_decode_context = type { i16 }
%struct.nghttp2_buf = type { ptr, ptr, ptr, ptr, ptr }

; Function Attrs: nounwind uwtable
define internal i32 @hd_ringbuf_init(ptr noundef %0, i64 noundef %1, ptr noundef %2) #0 {
  %4 = alloca i32, align 4
  %5 = alloca ptr, align 8
  %6 = alloca i64, align 8
  %7 = alloca ptr, align 8
  %8 = alloca i64, align 8
  %9 = alloca i64, align 8
  %10 = alloca i32, align 4
  store ptr %0, ptr %5, align 8, !tbaa !8
  store i64 %1, ptr %6, align 8, !tbaa !37
  store ptr %2, ptr %7, align 8, !tbaa !8
  call void @llvm.lifetime.start.p0(i64 8, ptr %8) #8
  call void @llvm.lifetime.start.p0(i64 8, ptr %9) #8
  store i64 2305843009213693951, ptr %9, align 8, !tbaa !37
  %11 = load i64, ptr %6, align 8, !tbaa !37
  %12 = icmp ugt i64 %11, 2305843009213693951
  br i1 %12, label %13, label %14

13:                                               ; preds = %3
  store i32 -901, ptr %4, align 4
  store i32 1, ptr %10, align 4
  br label %48

14:                                               ; preds = %3
  store i64 1, ptr %8, align 8, !tbaa !37
  br label %15

15:                                               ; preds = %20, %14
  %16 = load i64, ptr %8, align 8, !tbaa !37
  %17 = load i64, ptr %6, align 8, !tbaa !37
  %18 = icmp ult i64 %16, %17
  br i1 %18, label %19, label %23

19:                                               ; preds = %15
  br label %20

20:                                               ; preds = %19
  %21 = load i64, ptr %8, align 8, !tbaa !37
  %22 = shl i64 %21, 1
  store i64 %22, ptr %8, align 8, !tbaa !37
  br label %15, !llvm.loop !118

23:                                               ; preds = %15
  %24 = load i64, ptr %8, align 8, !tbaa !37
  %25 = icmp ugt i64 %24, 2305843009213693951
  br i1 %25, label %26, label %27

26:                                               ; preds = %23
  store i32 -901, ptr %4, align 4
  store i32 1, ptr %10, align 4
  br label %48

27:                                               ; preds = %23
  %28 = load ptr, ptr %7, align 8, !tbaa !8
  %29 = load i64, ptr %8, align 8, !tbaa !37
  %30 = mul i64 8, %29
  %31 = call ptr @nghttp2_mem_malloc(ptr noundef %28, i64 noundef %30)
  %32 = load ptr, ptr %5, align 8, !tbaa !8
  %33 = getelementptr inbounds nuw %struct.nghttp2_hd_ringbuf, ptr %32, i32 0, i32 0
  store ptr %31, ptr %33, align 8, !tbaa !81
  %34 = load ptr, ptr %5, align 8, !tbaa !8
  %35 = getelementptr inbounds nuw %struct.nghttp2_hd_ringbuf, ptr %34, i32 0, i32 0
  %36 = load ptr, ptr %35, align 8, !tbaa !81
  %37 = icmp eq ptr %36, null
  br i1 %37, label %38, label %39

38:                                               ; preds = %27
  store i32 -901, ptr %4, align 4
  store i32 1, ptr %10, align 4
  br label %48

39:                                               ; preds = %27
  %40 = load i64, ptr %8, align 8, !tbaa !37
  %41 = sub i64 %40, 1
  %42 = load ptr, ptr %5, align 8, !tbaa !8
  %43 = getelementptr inbounds nuw %struct.nghttp2_hd_ringbuf, ptr %42, i32 0, i32 1
  store i64 %41, ptr %43, align 8, !tbaa !83
  %44 = load ptr, ptr %5, align 8, !tbaa !8
  %45 = getelementptr inbounds nuw %struct.nghttp2_hd_ringbuf, ptr %44, i32 0, i32 2
  store i64 0, ptr %45, align 8, !tbaa !82
  %46 = load ptr, ptr %5, align 8, !tbaa !8
  %47 = getelementptr inbounds nuw %struct.nghttp2_hd_ringbuf, ptr %46, i32 0, i32 3
  store i64 0, ptr %47, align 8, !tbaa !80
  store i32 0, ptr %4, align 4
  store i32 1, ptr %10, align 4
  br label %48

48:                                               ; preds = %39, %38, %26, %13
  call void @llvm.lifetime.end.p0(i64 8, ptr %9) #8
  call void @llvm.lifetime.end.p0(i64 8, ptr %8) #8
  %49 = load i32, ptr %4, align 4
  ret i32 %49
}

; Function Attrs: nounwind uwtable
define internal i32 @hd_context_init(ptr noundef %0, ptr noundef %1) #0 {
  %3 = alloca i32, align 4
  %4 = alloca ptr, align 8
  %5 = alloca ptr, align 8
  %6 = alloca i32, align 4
  %7 = alloca i32, align 4
  store ptr %0, ptr %4, align 8, !tbaa !8
  store ptr %1, ptr %5, align 8, !tbaa !8
  call void @llvm.lifetime.start.p0(i64 4, ptr %6) #8
  %8 = load ptr, ptr %5, align 8, !tbaa !8
  %9 = load ptr, ptr %4, align 8, !tbaa !8
  %10 = getelementptr inbounds nuw %struct.nghttp2_hd_context, ptr %9, i32 0, i32 1
  store ptr %8, ptr %10, align 8, !tbaa !48
  %11 = load ptr, ptr %4, align 8, !tbaa !8
  %12 = getelementptr inbounds nuw %struct.nghttp2_hd_context, ptr %11, i32 0, i32 5
  store i8 0, ptr %12, align 4, !tbaa !49
  %13 = load ptr, ptr %4, align 8, !tbaa !8
  %14 = getelementptr inbounds nuw %struct.nghttp2_hd_context, ptr %13, i32 0, i32 3
  store i64 4096, ptr %14, align 8, !tbaa !50
  %15 = load ptr, ptr %4, align 8, !tbaa !8
  %16 = getelementptr inbounds nuw %struct.nghttp2_hd_context, ptr %15, i32 0, i32 0
  %17 = load ptr, ptr %4, align 8, !tbaa !8
  %18 = getelementptr inbounds nuw %struct.nghttp2_hd_context, ptr %17, i32 0, i32 3
  %19 = load i64, ptr %18, align 8, !tbaa !50
  %20 = udiv i64 %19, 32
  %21 = load ptr, ptr %5, align 8, !tbaa !8
  %22 = call i32 @hd_ringbuf_init(ptr noundef %16, i64 noundef %20, ptr noundef %21)
  store i32 %22, ptr %6, align 4, !tbaa !12
  %23 = load i32, ptr %6, align 4, !tbaa !12
  %24 = icmp ne i32 %23, 0
  br i1 %24, label %25, label %27

25:                                               ; preds = %2
  %26 = load i32, ptr %6, align 4, !tbaa !12
  store i32 %26, ptr %3, align 4
  store i32 1, ptr %7, align 4
  br label %32

27:                                               ; preds = %2
  %28 = load ptr, ptr %4, align 8, !tbaa !8
  %29 = getelementptr inbounds nuw %struct.nghttp2_hd_context, ptr %28, i32 0, i32 2
  store i64 0, ptr %29, align 8, !tbaa !51
  %30 = load ptr, ptr %4, align 8, !tbaa !8
  %31 = getelementptr inbounds nuw %struct.nghttp2_hd_context, ptr %30, i32 0, i32 4
  store i32 0, ptr %31, align 8, !tbaa !52
  store i32 0, ptr %3, align 4
  store i32 1, ptr %7, align 4
  br label %32

32:                                               ; preds = %27, %25
  call void @llvm.lifetime.end.p0(i64 4, ptr %6) #8
  %33 = load i32, ptr %3, align 4
  ret i32 %33
}

; Function Attrs: nounwind uwtable
define hidden i32 @nghttp2_hd_inflate_init(ptr noundef %0, ptr noundef %1) #0 {
  %3 = alloca i32, align 4
  %4 = alloca ptr, align 8
  %5 = alloca ptr, align 8
  %6 = alloca i32, align 4
  %7 = alloca i32, align 4
  store ptr %0, ptr %4, align 8, !tbaa !53
  store ptr %1, ptr %5, align 8, !tbaa !8
  call void @llvm.lifetime.start.p0(i64 4, ptr %6) #8
  %8 = load ptr, ptr %4, align 8, !tbaa !53
  %9 = getelementptr inbounds nuw %struct.nghttp2_hd_inflater, ptr %8, i32 0, i32 0
  %10 = load ptr, ptr %5, align 8, !tbaa !8
  %11 = call i32 @hd_context_init(ptr noundef %9, ptr noundef %10)
  store i32 %11, ptr %6, align 4, !tbaa !12
  %12 = load i32, ptr %6, align 4, !tbaa !12
  %13 = icmp ne i32 %12, 0
  br i1 %13, label %14, label %15

14:                                               ; preds = %2
  br label %48

15:                                               ; preds = %2
  %16 = load ptr, ptr %4, align 8, !tbaa !53
  %17 = getelementptr inbounds nuw %struct.nghttp2_hd_inflater, ptr %16, i32 0, i32 10
  store i64 4096, ptr %17, align 8, !tbaa !55
  %18 = load ptr, ptr %4, align 8, !tbaa !53
  %19 = getelementptr inbounds nuw %struct.nghttp2_hd_inflater, ptr %18, i32 0, i32 11
  store i64 4294967295, ptr %19, align 8, !tbaa !60
  %20 = load ptr, ptr %4, align 8, !tbaa !53
  %21 = getelementptr inbounds nuw %struct.nghttp2_hd_inflater, ptr %20, i32 0, i32 6
  store ptr null, ptr %21, align 8, !tbaa !61
  %22 = load ptr, ptr %4, align 8, !tbaa !53
  %23 = getelementptr inbounds nuw %struct.nghttp2_hd_inflater, ptr %22, i32 0, i32 7
  store ptr null, ptr %23, align 8, !tbaa !62
  %24 = load ptr, ptr %4, align 8, !tbaa !53
  %25 = getelementptr inbounds nuw %struct.nghttp2_hd_inflater, ptr %24, i32 0, i32 13
  store i32 0, ptr %25, align 8, !tbaa !63
  %26 = load ptr, ptr %4, align 8, !tbaa !53
  %27 = getelementptr inbounds nuw %struct.nghttp2_hd_inflater, ptr %26, i32 0, i32 14
  store i32 1, ptr %27, align 4, !tbaa !64
  %28 = load ptr, ptr %4, align 8, !tbaa !53
  %29 = getelementptr inbounds nuw %struct.nghttp2_hd_inflater, ptr %28, i32 0, i32 2
  call void @nghttp2_buf_init(ptr noundef %29)
  %30 = load ptr, ptr %4, align 8, !tbaa !53
  %31 = getelementptr inbounds nuw %struct.nghttp2_hd_inflater, ptr %30, i32 0, i32 3
  call void @nghttp2_buf_init(ptr noundef %31)
  %32 = load ptr, ptr %4, align 8, !tbaa !53
  %33 = getelementptr inbounds nuw %struct.nghttp2_hd_inflater, ptr %32, i32 0, i32 4
  store ptr null, ptr %33, align 8, !tbaa !65
  %34 = load ptr, ptr %4, align 8, !tbaa !53
  %35 = getelementptr inbounds nuw %struct.nghttp2_hd_inflater, ptr %34, i32 0, i32 5
  store ptr null, ptr %35, align 8, !tbaa !66
  %36 = load ptr, ptr %4, align 8, !tbaa !53
  %37 = getelementptr inbounds nuw %struct.nghttp2_hd_inflater, ptr %36, i32 0, i32 15
  store i8 0, ptr %37, align 8, !tbaa !67
  %38 = load ptr, ptr %4, align 8, !tbaa !53
  %39 = getelementptr inbounds nuw %struct.nghttp2_hd_inflater, ptr %38, i32 0, i32 9
  store i64 0, ptr %39, align 8, !tbaa !68
  %40 = load ptr, ptr %4, align 8, !tbaa !53
  %41 = getelementptr inbounds nuw %struct.nghttp2_hd_inflater, ptr %40, i32 0, i32 8
  store i64 0, ptr %41, align 8, !tbaa !69
  %42 = load ptr, ptr %4, align 8, !tbaa !53
  %43 = getelementptr inbounds nuw %struct.nghttp2_hd_inflater, ptr %42, i32 0, i32 12
  store i64 0, ptr %43, align 8, !tbaa !70
  %44 = load ptr, ptr %4, align 8, !tbaa !53
  %45 = getelementptr inbounds nuw %struct.nghttp2_hd_inflater, ptr %44, i32 0, i32 16
  store i8 0, ptr %45, align 1, !tbaa !71
  %46 = load ptr, ptr %4, align 8, !tbaa !53
  %47 = getelementptr inbounds nuw %struct.nghttp2_hd_inflater, ptr %46, i32 0, i32 17
  store i8 0, ptr %47, align 2, !tbaa !72
  store i32 0, ptr %3, align 4
  store i32 1, ptr %7, align 4
  br label %50

48:                                               ; preds = %14
  %49 = load i32, ptr %6, align 4, !tbaa !12
  store i32 %49, ptr %3, align 4
  store i32 1, ptr %7, align 4
  br label %50

50:                                               ; preds = %48, %15
  call void @llvm.lifetime.end.p0(i64 4, ptr %6) #8
  %51 = load i32, ptr %3, align 4
  ret i32 %51
}