; Function Attrs: nounwind uwtable
define hidden range(i32 -901, 1) i32 @nghttp2_hd_inflate_init(ptr noundef initializes((0, 8), (32, 40), (48, 56), (60, 61)) %0, ptr noundef %1) local_unnamed_addr #0 {
  %3 = getelementptr inbounds nuw i8, ptr %0, i64 32
  store ptr %1, ptr %3, align 8, !tbaa !33
  %4 = getelementptr inbounds nuw i8, ptr %0, i64 60
  store i8 0, ptr %4, align 4, !tbaa !38
  %5 = getelementptr inbounds nuw i8, ptr %0, i64 48
  store i64 4096, ptr %5, align 8, !tbaa !39
  %6 = tail call ptr @nghttp2_mem_malloc(ptr noundef %1, i64 noundef 1024) #12
  store ptr %6, ptr %0, align 8, !tbaa !40
  %7 = icmp eq ptr %6, null
  br i1 %7, label %hd_context_init.exit, label %8

8:                                                ; preds = %2
  %9 = getelementptr inbounds nuw i8, ptr %0, i64 8
  store i64 127, ptr %9, align 8, !tbaa !41
  %10 = getelementptr inbounds nuw i8, ptr %0, i64 16
  tail call void @llvm.memset.p0.i64(ptr noundef nonnull align 8 dereferenceable(16) %10, i8 0, i64 16, i1 false)
  %11 = getelementptr inbounds nuw i8, ptr %0, i64 40
  store i64 0, ptr %11, align 8, !tbaa !42
  %12 = getelementptr inbounds nuw i8, ptr %0, i64 56
  store i32 0, ptr %12, align 8, !tbaa !43
  %13 = getelementptr inbounds nuw i8, ptr %0, i64 200
  store i64 4096, ptr %13, align 8, !tbaa !50
  %14 = getelementptr inbounds nuw i8, ptr %0, i64 208
  store i64 4294967295, ptr %14, align 8, !tbaa !55
  %15 = getelementptr inbounds nuw i8, ptr %0, i64 168
  %16 = getelementptr inbounds nuw i8, ptr %0, i64 224
  store i32 0, ptr %16, align 8, !tbaa !56
  %17 = getelementptr inbounds nuw i8, ptr %0, i64 228
  tail call void @llvm.memset.p0.i64(ptr noundef nonnull align 8 dereferenceable(16) %15, i8 0, i64 16, i1 false)
  store i32 1, ptr %17, align 4, !tbaa !57
  %18 = getelementptr inbounds nuw i8, ptr %0, i64 72
  tail call void @nghttp2_buf_init(ptr noundef nonnull %18) #12
  %19 = getelementptr inbounds nuw i8, ptr %0, i64 112
  tail call void @nghttp2_buf_init(ptr noundef nonnull %19) #12
  %20 = getelementptr inbounds nuw i8, ptr %0, i64 152
  %21 = getelementptr inbounds nuw i8, ptr %0, i64 232
  store i8 0, ptr %21, align 8, !tbaa !58
  %22 = getelementptr inbounds nuw i8, ptr %0, i64 184
  %23 = getelementptr inbounds nuw i8, ptr %0, i64 216
  store i64 0, ptr %23, align 8, !tbaa !59
  %24 = getelementptr inbounds nuw i8, ptr %0, i64 233
  store i8 0, ptr %24, align 1, !tbaa !60
  %25 = getelementptr inbounds nuw i8, ptr %0, i64 234
  store i8 0, ptr %25, align 2, !tbaa !61
  tail call void @llvm.memset.p0.i64(ptr noundef nonnull align 8 dereferenceable(16) %20, i8 0, i64 16, i1 false)
  tail call void @llvm.memset.p0.i64(ptr noundef nonnull align 8 dereferenceable(16) %22, i8 0, i64 16, i1 false)
  br label %hd_context_init.exit

hd_context_init.exit:                             ; preds = %2, %8
  %.0 = phi i32 [ 0, %8 ], [ -901, %2 ]
  ret i32 %.0
}